; Function Attrs: mustprogress uwtable
define internal void @_ZN12_GLOBAL__N_144HyperscanArgChecks_StreamSizeNoDatabase_Test8TestBodyEv(ptr nonnull readnone align 8 captures(none) %0) unnamed_addr #7 align 2 personality ptr @__gxx_personality_v0 {
  %2 = alloca i64, align 8
  %3 = alloca i32, align 4
  %4 = alloca %"class.testing::AssertionResult", align 8
  %5 = alloca i32, align 4
  %6 = alloca %"class.testing::Message", align 8
  %7 = alloca %"class.testing::internal::AssertHelper", align 8
  call void @llvm.lifetime.start.p0(i64 8, ptr nonnull %2) #27
  call void @llvm.lifetime.start.p0(i64 4, ptr nonnull %3) #27
  %8 = call i32 @hs_stream_size(ptr noundef null, ptr noundef nonnull %2)
  store i32 %8, ptr %3, align 4
  call void @llvm.lifetime.start.p0(i64 16, ptr nonnull %4) #27
  call void @llvm.lifetime.start.p0(i64 4, ptr nonnull %5) #27
  store i32 -1, ptr %5, align 4
  call void @_ZN7testing8internal11CmpHelperEQIiiEENS_15AssertionResultEPKcS4_RKT_RKT0_(ptr dead_on_unwind nonnull writable sret(%"class.testing::AssertionResult") align 8 %4, ptr noundef nonnull @.str.324, ptr noundef nonnull @.str.302, ptr noundef nonnull align 4 dereferenceable(4) %5, ptr noundef nonnull align 4 dereferenceable(4) %3)
  call void @llvm.lifetime.end.p0(i64 4, ptr nonnull %5) #27
  %9 = load i8, ptr %4, align 8, !range !14, !noundef !15
  %10 = trunc nuw i8 %9 to i1
  br i1 %10, label %41, label %11

11:                                               ; preds = %1
  call void @llvm.lifetime.start.p0(i64 8, ptr nonnull %6) #27
  invoke void @_ZN7testing7MessageC1Ev(ptr noundef nonnull align 8 dereferenceable(8) %6)
          to label %12 unwind label %33

12:                                               ; preds = %11
  call void @llvm.lifetime.start.p0(i64 8, ptr nonnull %7) #27
  %13 = getelementptr inbounds nuw i8, ptr %4, i64 8
  %14 = load ptr, ptr %13, align 8
  %.not.i.i = icmp eq ptr %14, null
  br i1 %.not.i.i, label %_ZNK7testing15AssertionResult15failure_messageEv.exit, label %15

15:                                               ; preds = %12
  %16 = load ptr, ptr %14, align 8
  br label %_ZNK7testing15AssertionResult15failure_messageEv.exit

_ZNK7testing15AssertionResult15failure_messageEv.exit: ; preds = %15, %12
  %17 = phi ptr [ %16, %15 ], [ @.str.292, %12 ]
  invoke void @_ZN7testing8internal12AssertHelperC1ENS_14TestPartResult4TypeEPKciS5_(ptr noundef nonnull align 8 dereferenceable(8) %7, i32 noundef 2, ptr noundef nonnull @.str.286, i32 noundef 1549, ptr noundef %17)
          to label %18 unwind label %35

18:                                               ; preds = %_ZNK7testing15AssertionResult15failure_messageEv.exit
  invoke void @_ZNK7testing8internal12AssertHelperaSERKNS_7MessageE(ptr noundef nonnull align 8 dereferenceable(8) %7, ptr noundef nonnull align 8 dereferenceable(8) %6)
          to label %19 unwind label %37

19:                                               ; preds = %18
  call void @_ZN7testing8internal12AssertHelperD1Ev(ptr noundef nonnull align 8 dereferenceable(8) %7) #27
  call void @llvm.lifetime.end.p0(i64 8, ptr nonnull %7) #27
  %20 = load ptr, ptr %6, align 8
  %.not.i.i.i = icmp eq ptr %20, null
  br i1 %.not.i.i.i, label %_ZN7testing7MessageD2Ev.exit, label %21

21:                                               ; preds = %19
  %22 = invoke noundef zeroext i1 @_ZN7testing8internal6IsTrueEb(i1 noundef zeroext true)
          to label %.noexc.i.i unwind label %30

.noexc.i.i:                                       ; preds = %21
  br i1 %22, label %23, label %_ZN7testing7MessageD2Ev.exit

23:                                               ; preds = %.noexc.i.i
  %24 = load ptr, ptr %6, align 8
  %25 = icmp eq ptr %24, null
  br i1 %25, label %_ZN7testing7MessageD2Ev.exit, label %26

26:                                               ; preds = %23
  %27 = load ptr, ptr %24, align 8
  %28 = getelementptr inbounds nuw i8, ptr %27, i64 8
  %29 = load ptr, ptr %28, align 8
  call void %29(ptr noundef nonnull align 8 dereferenceable(128) %24) #27
  br label %_ZN7testing7MessageD2Ev.exit

30:                                               ; preds = %21
  %31 = landingpad { ptr, i32 }
          catch ptr null
  %32 = extractvalue { ptr, i32 } %31, 0
  call void @__clang_call_terminate(ptr %32) #28
  unreachable

_ZN7testing7MessageD2Ev.exit:                     ; preds = %.noexc.i.i, %23, %26, %19
  call void @llvm.lifetime.end.p0(i64 8, ptr nonnull %6) #27
  br label %41

33:                                               ; preds = %11
  %34 = landingpad { ptr, i32 }
          cleanup
  br label %40

35:                                               ; preds = %_ZNK7testing15AssertionResult15failure_messageEv.exit
  %36 = landingpad { ptr, i32 }
          cleanup
  br label %39

37:                                               ; preds = %18
  %38 = landingpad { ptr, i32 }
          cleanup
  call void @_ZN7testing8internal12AssertHelperD1Ev(ptr noundef nonnull align 8 dereferenceable(8) %7) #27
  br label %39

39:                                               ; preds = %37, %35
  %.pn = phi { ptr, i32 } [ %38, %37 ], [ %36, %35 ]
  call void @llvm.lifetime.end.p0(i64 8, ptr nonnull %7) #27
  call void @_ZN7testing7MessageD2Ev(ptr noundef nonnull align 8 dereferenceable(8) %6) #27
  br label %40

40:                                               ; preds = %39, %33
  %.pn.pn = phi { ptr, i32 } [ %.pn, %39 ], [ %34, %33 ]
  call void @llvm.lifetime.end.p0(i64 8, ptr nonnull %6) #27
  call void @_ZN7testing15AssertionResultD2Ev(ptr noundef nonnull align 8 dereferenceable(16) %4) #27
  call void @llvm.lifetime.end.p0(i64 16, ptr nonnull %4) #27
  call void @llvm.lifetime.end.p0(i64 4, ptr nonnull %3) #27
  call void @llvm.lifetime.end.p0(i64 8, ptr nonnull %2) #27
  resume { ptr, i32 } %.pn.pn

41:                                               ; preds = %1, %_ZN7testing7MessageD2Ev.exit
  %42 = getelementptr inbounds nuw i8, ptr %4, i64 8
  %43 = load ptr, ptr %42, align 8
  %.not.i.i.i7 = icmp eq ptr %43, null
  br i1 %.not.i.i.i7, label %_ZN7testing15AssertionResultD2Ev.exit, label %44

44:                                               ; preds = %41
  %45 = invoke noundef zeroext i1 @_ZN7testing8internal6IsTrueEb(i1 noundef zeroext true)
          to label %.noexc.i.i8 unwind label %56

.noexc.i.i8:                                      ; preds = %44
  br i1 %45, label %46, label %_ZN7testing15AssertionResultD2Ev.exit

46:                                               ; preds = %.noexc.i.i8
  %47 = load ptr, ptr %42, align 8
  %48 = icmp eq ptr %47, null
  br i1 %48, label %_ZN7testing15AssertionResultD2Ev.exit, label %49

49:                                               ; preds = %46
  %50 = load ptr, ptr %47, align 8
  %51 = getelementptr inbounds nuw i8, ptr %47, i64 16
  %52 = icmp eq ptr %50, %51
  br i1 %52, label %_ZNKSt7__cxx1112basic_stringIcSt11char_traitsIcESaIcEE11_M_is_localEv.exit.thread.i.i.i.i.i, label %_ZNKSt7__cxx1112basic_stringIcSt11char_traitsIcESaIcEE11_M_is_localEv.exit.i.i.i.i.i

_ZNKSt7__cxx1112basic_stringIcSt11char_traitsIcESaIcEE11_M_is_localEv.exit.thread.i.i.i.i.i: ; preds = %49
  %53 = getelementptr inbounds nuw i8, ptr %47, i64 8
  %54 = load i64, ptr %53, align 8
  %55 = icmp ult i64 %54, 16
  call void @llvm.assume(i1 %55)
  br label %_ZNSt7__cxx1112basic_stringIcSt11char_traitsIcESaIcEED2Ev.exit.i.i.i

_ZNKSt7__cxx1112basic_stringIcSt11char_traitsIcESaIcEE11_M_is_localEv.exit.i.i.i.i.i: ; preds = %49
  call void @_ZdlPv(ptr noundef %50) #31
  br label %_ZNSt7__cxx1112basic_stringIcSt11char_traitsIcESaIcEED2Ev.exit.i.i.i

_ZNSt7__cxx1112basic_stringIcSt11char_traitsIcESaIcEED2Ev.exit.i.i.i: ; preds = %_ZNKSt7__cxx1112basic_stringIcSt11char_traitsIcESaIcEE11_M_is_localEv.exit.i.i.i.i.i, %_ZNKSt7__cxx1112basic_stringIcSt11char_traitsIcESaIcEE11_M_is_localEv.exit.thread.i.i.i.i.i
  call void @_ZdlPv(ptr noundef nonnull %47) #31
  br label %_ZN7testing15AssertionResultD2Ev.exit

56:                                               ; preds = %44
  %57 = landingpad { ptr, i32 }
          catch ptr null
  %58 = extractvalue { ptr, i32 } %57, 0
  call void @__clang_call_terminate(ptr %58) #28
  unreachable

_ZN7testing15AssertionResultD2Ev.exit:            ; preds = %.noexc.i.i8, %46, %_ZNSt7__cxx1112basic_stringIcSt11char_traitsIcESaIcEED2Ev.exit.i.i.i, %41
  call void @llvm.lifetime.end.p0(i64 16, ptr nonnull %4) #27
  call void @llvm.lifetime.end.p0(i64 4, ptr nonnull %3) #27
  call void @llvm.lifetime.end.p0(i64 8, ptr nonnull %2) #27
  ret void
}